; ModuleID = '28/863.c'
source_filename = "28/863.c"
target datalayout = "e-m:e-p270:32:32-p271:32:32-p272:64:64-i64:64-f80:128-n8:16:32:64-S128"
target triple = "x86_64-pc-linux-gnu"

@.str = private unnamed_addr constant [3 x i8] c"%d\00", align 1
@.str.1 = private unnamed_addr constant [4 x i8] c"%d,\00", align 1

; Function Attrs: noinline nounwind uwtable
define dso_local i32 @main() #0 {
  %1 = alloca i32, align 4
  %2 = alloca [3000 x i8], align 16
  %3 = alloca [300 x i32], align 16
  %4 = alloca i32, align 4
  %5 = alloca i32, align 4
  %6 = alloca i32, align 4
  %7 = alloca i32, align 4
  %8 = alloca i32, align 4
  %9 = alloca i32, align 4
  store i32 0, i32* %1, align 4
  store i32 0, i32* %4, align 4
  store i32 0, i32* %5, align 4
  store i32 0, i32* %9, align 4
  %10 = getelementptr inbounds [3000 x i8], [3000 x i8]* %2, i64 0, i64 0
  %11 = call i32 (i8*, ...) bitcast (i32 (...)* @gets to i32 (i8*, ...)*)(i8* %10)
  store i32 0, i32* %6, align 4
  br label %12

12:                                               ; preds = %66, %0
  %13 = load i32, i32* %6, align 4
  %14 = sext i32 %13 to i64
  %15 = getelementptr inbounds [3000 x i8], [3000 x i8]* %2, i64 0, i64 %14
  %16 = load i8, i8* %15, align 1
  %17 = sext i8 %16 to i32
  %18 = icmp ne i32 %17, 0
  br i1 %18, label %19, label %69

19:                                               ; preds = %12
  store i32 0, i32* %8, align 4
  br label %20

20:                                               ; preds = %62, %19
  %21 = load i32, i32* %8, align 4
  %22 = icmp slt i32 %21, 32
  br i1 %22, label %23, label %65

23:                                               ; preds = %20
  %24 = load i32, i32* %6, align 4
  %25 = sext i32 %24 to i64
  %26 = getelementptr inbounds [3000 x i8], [3000 x i8]* %2, i64 0, i64 %25
  %27 = load i8, i8* %26, align 1
  %28 = sext i8 %27 to i32
  %29 = icmp eq i32 %28, 32
  br i1 %29, label %30, label %61

30:                                               ; preds = %23
  %31 = load i32, i32* %6, align 4
  %32 = add nsw i32 %31, 1
  %33 = sext i32 %32 to i64
  %34 = getelementptr inbounds [3000 x i8], [3000 x i8]* %2, i64 0, i64 %33
  %35 = load i8, i8* %34, align 1
  %36 = sext i8 %35 to i32
  %37 = icmp eq i32 %36, 32
  br i1 %37, label %38, label %61

38:                                               ; preds = %30
  %39 = load i32, i32* %6, align 4
  %40 = add nsw i32 %39, 1
  store i32 %40, i32* %7, align 4
  br label %41

41:                                               ; preds = %57, %38
  %42 = load i32, i32* %7, align 4
  %43 = sext i32 %42 to i64
  %44 = getelementptr inbounds [3000 x i8], [3000 x i8]* %2, i64 0, i64 %43
  %45 = load i8, i8* %44, align 1
  %46 = sext i8 %45 to i32
  %47 = icmp ne i32 %46, 0
  br i1 %47, label %48, label %60

48:                                               ; preds = %41
  %49 = load i32, i32* %7, align 4
  %50 = add nsw i32 %49, 1
  %51 = sext i32 %50 to i64
  %52 = getelementptr inbounds [3000 x i8], [3000 x i8]* %2, i64 0, i64 %51
  %53 = load i8, i8* %52, align 1
  %54 = load i32, i32* %7, align 4
  %55 = sext i32 %54 to i64
  %56 = getelementptr inbounds [3000 x i8], [3000 x i8]* %2, i64 0, i64 %55
  store i8 %53, i8* %56, align 1
  br label %57

57:                                               ; preds = %48
  %58 = load i32, i32* %7, align 4
  %59 = add nsw i32 %58, 1
  store i32 %59, i32* %7, align 4
  br label %41

60:                                               ; preds = %41
  br label %61

61:                                               ; preds = %60, %30, %23
  br label %62

62:                                               ; preds = %61
  %63 = load i32, i32* %8, align 4
  %64 = add nsw i32 %63, 1
  store i32 %64, i32* %8, align 4
  br label %20

65:                                               ; preds = %20
  br label %66

66:                                               ; preds = %65
  %67 = load i32, i32* %6, align 4
  %68 = add nsw i32 %67, 1
  store i32 %68, i32* %6, align 4
  br label %12

69:                                               ; preds = %12
  %70 = getelementptr inbounds [3000 x i8], [3000 x i8]* %2, i64 0, i64 0
  %71 = call i64 @strlen(i8* %70) #3
  %72 = trunc i64 %71 to i32
  store i32 %72, i32* %4, align 4
  store i32 0, i32* %6, align 4
  br label %73

73:                                               ; preds = %99, %69
  %74 = load i32, i32* %6, align 4
  %75 = sext i32 %74 to i64
  %76 = getelementptr inbounds [3000 x i8], [3000 x i8]* %2, i64 0, i64 %75
  %77 = load i8, i8* %76, align 1
  %78 = sext i8 %77 to i32
  %79 = icmp ne i32 %78, 0
  br i1 %79, label %80, label %102

80:                                               ; preds = %73
  %81 = load i32, i32* %6, align 4
  %82 = sext i32 %81 to i64
  %83 = getelementptr inbounds [3000 x i8], [3000 x i8]* %2, i64 0, i64 %82
  %84 = load i8, i8* %83, align 1
  %85 = sext i8 %84 to i32
  %86 = icmp eq i32 %85, 32
  br i1 %86, label %87, label %98

87:                                               ; preds = %80
  %88 = load i32, i32* %6, align 4
  %89 = add nsw i32 %88, 1
  %90 = sext i32 %89 to i64
  %91 = getelementptr inbounds [3000 x i8], [3000 x i8]* %2, i64 0, i64 %90
  %92 = load i8, i8* %91, align 1
  %93 = sext i8 %92 to i32
  %94 = icmp ne i32 %93, 32
  br i1 %94, label %95, label %98

95:                                               ; preds = %87
  %96 = load i32, i32* %5, align 4
  %97 = add nsw i32 %96, 1
  store i32 %97, i32* %5, align 4
  br label %98

98:                                               ; preds = %95, %87, %80
  br label %99

99:                                               ; preds = %98
  %100 = load i32, i32* %6, align 4
  %101 = add nsw i32 %100, 1
  store i32 %101, i32* %6, align 4
  br label %73

102:                                              ; preds = %73
  store i32 0, i32* %7, align 4
  br label %103

103:                                              ; preds = %133, %102
  %104 = load i32, i32* %7, align 4
  %105 = sext i32 %104 to i64
  %106 = getelementptr inbounds [3000 x i8], [3000 x i8]* %2, i64 0, i64 %105
  %107 = load i8, i8* %106, align 1
  %108 = sext i8 %107 to i32
  %109 = icmp ne i32 %108, 0
  br i1 %109, label %110, label %136

110:                                              ; preds = %103
  %111 = load i32, i32* %7, align 4
  %112 = sext i32 %111 to i64
  %113 = getelementptr inbounds [3000 x i8], [3000 x i8]* %2, i64 0, i64 %112
  %114 = load i8, i8* %113, align 1
  %115 = sext i8 %114 to i32
  %116 = icmp eq i32 %115, 32
  br i1 %116, label %117, label %132

117:                                              ; preds = %110
  %118 = load i32, i32* %7, align 4
  %119 = add nsw i32 %118, 1
  %120 = sext i32 %119 to i64
  %121 = getelementptr inbounds [3000 x i8], [3000 x i8]* %2, i64 0, i64 %120
  %122 = load i8, i8* %121, align 1
  %123 = sext i8 %122 to i32
  %124 = icmp ne i32 %123, 32
  br i1 %124, label %125, label %132

125:                                              ; preds = %117
  %126 = load i32, i32* %7, align 4
  %127 = load i32, i32* %9, align 4
  %128 = sext i32 %127 to i64
  %129 = getelementptr inbounds [300 x i32], [300 x i32]* %3, i64 0, i64 %128
  store i32 %126, i32* %129, align 4
  %130 = load i32, i32* %9, align 4
  %131 = add nsw i32 %130, 1
  store i32 %131, i32* %9, align 4
  br label %132

132:                                              ; preds = %125, %117, %110
  br label %133

133:                                              ; preds = %132
  %134 = load i32, i32* %7, align 4
  %135 = add nsw i32 %134, 1
  store i32 %135, i32* %7, align 4
  br label %103

136:                                              ; preds = %103
  %137 = load i32, i32* %5, align 4
  %138 = icmp eq i32 %137, 0
  br i1 %138, label %139, label %142

139:                                              ; preds = %136
  %140 = load i32, i32* %4, align 4
  %141 = call i32 (i8*, ...) @printf(i8* getelementptr inbounds ([3 x i8], [3 x i8]* @.str, i64 0, i64 0), i32 %140)
  br label %142

142:                                              ; preds = %139, %136
  %143 = load i32, i32* %5, align 4
  %144 = icmp sgt i32 %143, 0
  br i1 %144, label %145, label %180

145:                                              ; preds = %142
  %146 = getelementptr inbounds [300 x i32], [300 x i32]* %3, i64 0, i64 0
  %147 = load i32, i32* %146, align 16
  %148 = call i32 (i8*, ...) @printf(i8* getelementptr inbounds ([4 x i8], [4 x i8]* @.str.1, i64 0, i64 0), i32 %147)
  store i32 0, i32* %6, align 4
  br label %149

149:                                              ; preds = %167, %145
  %150 = load i32, i32* %6, align 4
  %151 = load i32, i32* %5, align 4
  %152 = sub nsw i32 %151, 1
  %153 = icmp slt i32 %150, %152
  br i1 %153, label %154, label %170

154:                                              ; preds = %149
  %155 = load i32, i32* %6, align 4
  %156 = add nsw i32 %155, 1
  %157 = sext i32 %156 to i64
  %158 = getelementptr inbounds [300 x i32], [300 x i32]* %3, i64 0, i64 %157
  %159 = load i32, i32* %158, align 4
  %160 = load i32, i32* %6, align 4
  %161 = sext i32 %160 to i64
  %162 = getelementptr inbounds [300 x i32], [300 x i32]* %3, i64 0, i64 %161
  %163 = load i32, i32* %162, align 4
  %164 = sub nsw i32 %159, %163
  %165 = sub nsw i32 %164, 1
  %166 = call i32 (i8*, ...) @printf(i8* getelementptr inbounds ([4 x i8], [4 x i8]* @.str.1, i64 0, i64 0), i32 %165)
  br label %167

167:                                              ; preds = %154
  %168 = load i32, i32* %6, align 4
  %169 = add nsw i32 %168, 1
  store i32 %169, i32* %6, align 4
  br label %149

170:                                              ; preds = %149
  %171 = load i32, i32* %4, align 4
  %172 = load i32, i32* %5, align 4
  %173 = sub nsw i32 %172, 1
  %174 = sext i32 %173 to i64
  %175 = getelementptr inbounds [300 x i32], [300 x i32]* %3, i64 0, i64 %174
  %176 = load i32, i32* %175, align 4
  %177 = sub nsw i32 %171, %176
  %178 = sub nsw i32 %177, 1
  %179 = call i32 (i8*, ...) @printf(i8* getelementptr inbounds ([3 x i8], [3 x i8]* @.str, i64 0, i64 0), i32 %178)
  br label %180

180:                                              ; preds = %170, %142
  ret i32 0
}

declare dso_local i32 @gets(...) #1

; Function Attrs: nounwind readonly
declare dso_local i64 @strlen(i8*) #2

declare dso_local i32 @printf(i8*, ...) #1


!llvm.module.flags = !{!0}
!llvm.ident = !{!1}

!0 = !{i32 1, !"wchar_size", i32 4}
!1 = !{!"clang version 10.0.0-4ubuntu1 "}
